; ModuleID = '1231.c'
source_filename = "1231.c"
target datalayout = "e-m:e-p270:32:32-p271:32:32-p272:64:64-i64:64-f80:128-n8:16:32:64-S128"
target triple = "x86_64-pc-linux-gnu"

@.str = private unnamed_addr constant [3 x i8] c"%d\00", align 1
@.str.1 = private unnamed_addr constant [7 x i8] c"%.3lf\0A\00", align 1

; Function Attrs: noinline nounwind uwtable
define dso_local i32 @main() #0 {
  %1 = alloca i32, align 4
  %2 = alloca i32, align 4
  %3 = alloca i32, align 4
  %4 = alloca i32, align 4
  %5 = alloca i32, align 4
  %6 = alloca [100 x double], align 16
  %7 = alloca double, align 8
  %8 = alloca double, align 8
  %9 = alloca double, align 8
  store i32 0, i32* %1, align 4
  %10 = bitcast [100 x double]* %6 to i8*
  call void @llvm.memset.p0i8.i64(i8* align 16 %10, i8 0, i64 800, i1 false)
  %11 = call i32 (i8*, ...) @__isoc99_scanf(i8* getelementptr inbounds ([3 x i8], [3 x i8]* @.str, i64 0, i64 0), i32* %2)
  store i32 1, i32* %3, align 4
  br label %12

12:                                               ; preds = %43, %0
  %13 = load i32, i32* %3, align 4
  %14 = load i32, i32* %2, align 4
  %15 = icmp sle i32 %13, %14
  br i1 %15, label %16, label %46

16:                                               ; preds = %12
  %17 = call i32 (i8*, ...) @__isoc99_scanf(i8* getelementptr inbounds ([3 x i8], [3 x i8]* @.str, i64 0, i64 0), i32* %4)
  store double 2.000000e+00, double* %7, align 8
  store double 1.000000e+00, double* %8, align 8
  store i32 1, i32* %5, align 4
  br label %18

18:                                               ; preds = %39, %16
  %19 = load i32, i32* %5, align 4
  %20 = load i32, i32* %4, align 4
  %21 = icmp sle i32 %19, %20
  br i1 %21, label %22, label %42

22:                                               ; preds = %18
  %23 = load i32, i32* %3, align 4
  %24 = sext i32 %23 to i64
  %25 = getelementptr inbounds [100 x double], [100 x double]* %6, i64 0, i64 %24
  %26 = load double, double* %25, align 8
  %27 = load double, double* %7, align 8
  %28 = load double, double* %8, align 8
  %29 = fdiv double %27, %28
  %30 = fadd double %26, %29
  %31 = load i32, i32* %3, align 4
  %32 = sext i32 %31 to i64
  %33 = getelementptr inbounds [100 x double], [100 x double]* %6, i64 0, i64 %32
  store double %30, double* %33, align 8
  %34 = load double, double* %7, align 8
  store double %34, double* %9, align 8
  %35 = load double, double* %7, align 8
  %36 = load double, double* %8, align 8
  %37 = fadd double %35, %36
  store double %37, double* %7, align 8
  %38 = load double, double* %9, align 8
  store double %38, double* %8, align 8
  br label %39

39:                                               ; preds = %22
  %40 = load i32, i32* %5, align 4
  %41 = add nsw i32 %40, 1
  store i32 %41, i32* %5, align 4
  br label %18

42:                                               ; preds = %18
  br label %43

43:                                               ; preds = %42
  %44 = load i32, i32* %3, align 4
  %45 = add nsw i32 %44, 1
  store i32 %45, i32* %3, align 4
  br label %12

46:                                               ; preds = %12
  store i32 1, i32* %3, align 4
  br label %47

47:                                               ; preds = %57, %46
  %48 = load i32, i32* %3, align 4
  %49 = load i32, i32* %2, align 4
  %50 = icmp sle i32 %48, %49
  br i1 %50, label %51, label %60

51:                                               ; preds = %47
  %52 = load i32, i32* %3, align 4
  %53 = sext i32 %52 to i64
  %54 = getelementptr inbounds [100 x double], [100 x double]* %6, i64 0, i64 %53
  %55 = load double, double* %54, align 8
  %56 = call i32 (i8*, ...) @printf(i8* getelementptr inbounds ([7 x i8], [7 x i8]* @.str.1, i64 0, i64 0), double %55)
  br label %57

57:                                               ; preds = %51
  %58 = load i32, i32* %3, align 4
  %59 = add nsw i32 %58, 1
  store i32 %59, i32* %3, align 4
  br label %47

60:                                               ; preds = %47
  ret i32 0
}

; Function Attrs: argmemonly nounwind willreturn
declare void @llvm.memset.p0i8.i64(i8* nocapture writeonly, i8, i64, i1 immarg) #1

declare dso_local i32 @__isoc99_scanf(i8*, ...) #2

declare dso_local i32 @printf(i8*, ...) #2


!llvm.module.flags = !{!0}
!llvm.ident = !{!1}

!0 = !{i32 1, !"wchar_size", i32 4}
!1 = !{!"clang version 10.0.0-4ubuntu1 "}
